target datalayout = "e-m:e-p270:32:32-p271:32:32-p272:64:64-i64:64-i128:128-f80:128-n8:16:32:64-S128"
target triple = "x86_64-pc-linux-gnu"

; Function Attrs: nounwind uwtable
define i32 @X509_NAME_print_ex_fp(ptr noundef %0, ptr noundef %1, i32 noundef %2, i64 noundef %3) #0 {
  %5 = alloca i32, align 4
  %6 = alloca ptr, align 8
  %7 = alloca ptr, align 8
  %8 = alloca i32, align 4
  %9 = alloca i64, align 8
  %10 = alloca ptr, align 8
  %11 = alloca i32, align 4
  %12 = alloca i32, align 4
  store ptr %0, ptr %6, align 8, !tbaa !25
  store ptr %1, ptr %7, align 8, !tbaa !8
  store i32 %2, ptr %8, align 4, !tbaa !10
  store i64 %3, ptr %9, align 8, !tbaa !12
  %13 = load i64, ptr %9, align 8, !tbaa !12
  %14 = icmp eq i64 %13, 0
  br i1 %14, label %15, label %30

15:                                               ; preds = %4
  call void @llvm.lifetime.start.p0(i64 8, ptr %10) #4
  call void @llvm.lifetime.start.p0(i64 4, ptr %11) #4
  %16 = load ptr, ptr %6, align 8, !tbaa !25
  %17 = call ptr @BIO_new_fp(ptr noundef %16, i32 noundef 0)
  store ptr %17, ptr %10, align 8, !tbaa !3
  %18 = load ptr, ptr %10, align 8, !tbaa !3
  %19 = icmp ne ptr %18, null
  br i1 %19, label %21, label %20

20:                                               ; preds = %15
  store i32 -1, ptr %5, align 4
  store i32 1, ptr %12, align 4
  br label %29

21:                                               ; preds = %15
  %22 = load ptr, ptr %10, align 8, !tbaa !3
  %23 = load ptr, ptr %7, align 8, !tbaa !8
  %24 = load i32, ptr %8, align 4, !tbaa !10
  %25 = call i32 @X509_NAME_print(ptr noundef %22, ptr noundef %23, i32 noundef %24)
  store i32 %25, ptr %11, align 4, !tbaa !10
  %26 = load ptr, ptr %10, align 8, !tbaa !3
  %27 = call i32 @BIO_free(ptr noundef %26)
  %28 = load i32, ptr %11, align 4, !tbaa !10
  store i32 %28, ptr %5, align 4
  store i32 1, ptr %12, align 4
  br label %29

29:                                               ; preds = %21, %20
  call void @llvm.lifetime.end.p0(i64 4, ptr %11) #4
  call void @llvm.lifetime.end.p0(i64 8, ptr %10) #4
  br label %36

30:                                               ; preds = %4
  %31 = load ptr, ptr %6, align 8, !tbaa !25
  %32 = load ptr, ptr %7, align 8, !tbaa !8
  %33 = load i32, ptr %8, align 4, !tbaa !10
  %34 = load i64, ptr %9, align 8, !tbaa !12
  %35 = call i32 @do_name_ex(ptr noundef @send_fp_chars, ptr noundef %31, ptr noundef %32, i32 noundef %33, i64 noundef %34)
  store i32 %35, ptr %5, align 4
  br label %36

36:                                               ; preds = %30, %29
  %37 = load i32, ptr %5, align 4
  ret i32 %37
}