; Function Attrs: nounwind uwtable
define i32 @X509_NAME_print_ex_fp(ptr noundef %0, ptr noundef %1, i32 noundef %2, i64 noundef %3) local_unnamed_addr #0 {
  %5 = icmp eq i64 %3, 0
  br i1 %5, label %6, label %11

6:                                                ; preds = %4
  %7 = tail call ptr @BIO_new_fp(ptr noundef %0, i32 noundef 0) #8
  %.not = icmp eq ptr %7, null
  br i1 %.not, label %13, label %8

8:                                                ; preds = %6
  %9 = tail call i32 @X509_NAME_print(ptr noundef nonnull %7, ptr noundef %1, i32 noundef %2) #8
  %10 = tail call i32 @BIO_free(ptr noundef nonnull %7) #8
  br label %13

11:                                               ; preds = %4
  %12 = tail call fastcc i32 @do_name_ex(ptr noundef nonnull @send_fp_chars, ptr noundef %0, ptr noundef %1, i32 noundef %2, i64 noundef %3)
  br label %13

13:                                               ; preds = %8, %6, %11
  %.1 = phi i32 [ %12, %11 ], [ %9, %8 ], [ -1, %6 ]
  ret i32 %.1
}